(lp0
cnumpy.core.multiarray
scalar
p1
(cnumpy
dtype
p2
(S'i8'
p3
I0
I1
tp4
Rp5
(I3
S'<'
p6
NNNI-1
I-1
I0
tp7
bS'\x02\x00\x00\x00\x00\x00\x00\x00'
p8
tp9
Rp10
ag10
ag10
ag10
ag10
ag10
ag10
ag10
ag10
ag10
ag10
ag10
ag10
ag10
ag10
ag10
ag10
ag10
ag10
ag10
ag10
ag10
ag10
ag10
ag10
ag10
ag10
ag10
ag10
ag10
ag10
ag10
ag10
ag10
ag10
ag10
ag10
ag10
ag10
ag10
ag10
ag10
ag10
ag10
ag10
ag10
ag10
ag10
ag10
ag10
ag10
ag10
ag10
ag10
ag10
ag10
ag10
ag10
ag10
ag10
ag1
(g5
S'\x03\x00\x00\x00\x00\x00\x00\x00'
p11
tp12
Rp13
ag13
ag13
ag13
ag13
ag13
ag13
ag13
ag13
ag13
ag13
ag13
ag13
ag13
ag13
ag13
ag13
ag13
ag13
ag13
ag13
ag13
ag13
ag13
ag13
ag13
ag13
ag13
ag13
ag13
ag13
ag13
ag13
ag13
ag13
ag13
ag13
ag13
ag13
ag13
ag13
ag13
ag13
ag13
ag13
ag13
ag13
ag13
ag13
ag13
ag13
ag13
ag13
ag13
ag13
ag13
ag13
ag13
ag1
(g5
S'\x05\x00\x00\x00\x00\x00\x00\x00'
p14
tp15
Rp16
ag16
ag16
ag16
ag16
ag16
ag16
ag16
ag16
ag16
ag16
ag16
ag16
ag16
ag16
ag16
ag16
ag16
ag16
ag16
ag16
ag16
ag16
ag16
ag16
ag16
ag16
ag16
ag16
ag16
ag16
ag16
ag16
ag16
ag16
ag16
ag16
ag16
ag16
ag16
ag16
ag16
ag16
ag16
ag1
(g5
S'\x07\x00\x00\x00\x00\x00\x00\x00'
p17
tp18
Rp19
ag19
ag19
ag19
ag19
ag19
ag19
ag19
ag19
ag19
ag19
ag19
ag19
ag19
ag19
ag19
ag19
ag19
ag19
ag19
ag19
ag19
ag19
ag19
ag19
ag19
ag19
ag19
ag19
ag19
ag19
ag19
ag19
ag19
ag19
ag19
ag19
ag19
ag19
ag19
ag19
ag19
ag19
ag19
ag19
ag19
ag19
ag19
ag19
ag19
ag19
ag19
ag19
ag1
(g5
S'\n\x00\x00\x00\x00\x00\x00\x00'
p20
tp21
Rp22
ag22
ag22
ag22
ag22
ag22
ag22
ag22
ag22
ag22
ag22
ag22
ag22
ag22
ag22
ag22
ag22
ag22
ag22
ag22
ag22
ag22
ag22
ag22
ag22
ag22
ag22
ag22
ag22
ag22
ag22
ag22
ag22
ag22
ag22
ag22
ag22
ag22
ag22
ag22
ag22
ag22
ag22
ag22
ag22
ag22
ag22
ag22
ag22
ag22
ag22
ag22
ag22
ag22
ag22
ag22
ag22
ag22
ag22
ag22
ag1
(g5
S'\x0b\x00\x00\x00\x00\x00\x00\x00'
p23
tp24
Rp25
ag25
ag25
ag25
ag25
ag25
ag25
ag25
ag25
ag25
ag25
ag25
ag25
ag25
ag25
ag25
ag25
ag25
ag25
ag25
ag25
ag25
ag25
ag25
ag25
ag25
ag25
ag25
ag25
ag25
ag25
ag25
ag25
ag25
ag25
ag25
ag25
ag25
ag25
ag25
ag25
ag25
ag25
ag25
ag25
ag25
ag25
ag25
ag25
ag25
ag25
ag25
ag25
ag25
ag25
ag25
ag25
ag25
ag25
ag25
ag1
(g5
S'\x0c\x00\x00\x00\x00\x00\x00\x00'
p26
tp27
Rp28
ag28
ag28
ag28
ag28
ag28
ag28
ag28
ag28
ag28
ag28
ag28
ag28
ag28
ag28
ag28
ag28
ag28
ag28
ag28
ag28
ag28
ag28
ag28
ag28
ag28
ag28
ag28
ag28
ag28
ag28
ag28
ag28
ag28
ag28
ag28
ag28
ag28
ag28
ag28
ag28
ag28
ag28
ag28
ag28
ag28
ag28
ag28
ag28
ag28
ag28
ag28
ag28
ag28
ag28
ag28
ag1
(g5
S'\r\x00\x00\x00\x00\x00\x00\x00'
p29
tp30
Rp31
ag31
ag31
ag31
ag31
ag31
ag31
ag31
ag31
ag31
ag31
ag31
ag31
ag31
ag31
ag31
ag31
ag31
ag31
ag31
ag31
ag31
ag31
ag31
ag31
ag31
ag31
ag31
ag31
ag31
ag31
ag31
ag31
ag31
ag31
ag31
ag31
ag31
ag31
ag31
ag31
ag31
ag31
ag31
ag31
ag31
ag31
ag31
ag31
ag31
ag31
ag31
ag31
ag31
ag31
ag31
ag31
ag31
ag31
ag31
ag1
(g5
S'\x0f\x00\x00\x00\x00\x00\x00\x00'
p32
tp33
Rp34
ag34
ag34
ag34
ag34
ag34
ag34
ag34
ag34
ag34
ag34
ag34
ag34
ag34
ag34
ag34
ag34
ag34
ag34
ag34
ag34
ag34
ag34
ag34
ag34
ag34
ag34
ag34
ag34
ag34
ag34
ag34
ag34
ag34
ag34
ag34
ag34
ag34
ag34
ag34
ag34
ag34
ag34
ag34
ag34
ag34
ag34
ag34
ag34
ag34
ag34
ag34
ag34
ag34
ag34
ag34
ag34
ag34
ag1
(g5
S'\x10\x00\x00\x00\x00\x00\x00\x00'
p35
tp36
Rp37
ag37
ag37
ag37
ag37
ag37
ag37
ag37
ag37
ag37
ag37
ag37
ag37
ag37
ag37
ag37
ag37
ag37
ag37
ag37
ag37
ag37
ag37
ag37
ag37
ag37
ag37
ag37
ag37
ag37
ag37
ag37
ag37
ag37
ag37
ag37
ag37
ag37
ag37
ag37
ag37
ag37
ag37
ag37
ag37
ag37
ag37
ag37
ag37
ag37
ag37
ag37
ag37
ag37
ag37
ag37
ag37
ag37
ag1
(g5
S'\x11\x00\x00\x00\x00\x00\x00\x00'
p38
tp39
Rp40
ag40
ag40
ag40
ag40
ag40
ag40
ag40
ag40
ag40
ag40
ag40
ag40
ag40
ag40
ag40
ag40
ag40
ag40
ag40
ag40
ag40
ag40
ag40
ag40
ag40
ag40
ag40
ag40
ag40
ag40
ag40
ag40
ag40
ag40
ag40
ag40
ag40
ag40
ag40
ag40
ag40
ag40
ag40
ag40
ag40
ag40
ag40
ag40
ag40
ag40
ag40
ag40
ag40
ag40
ag40
ag40
ag1
(g5
S'\x12\x00\x00\x00\x00\x00\x00\x00'
p41
tp42
Rp43
ag43
ag43
ag43
ag43
ag43
ag43
ag43
ag43
ag43
ag43
ag43
ag43
ag43
ag43
ag43
ag43
ag43
ag43
ag43
ag43
ag43
ag43
ag43
ag43
ag43
ag43
ag43
ag43
ag43
ag43
ag43
ag43
ag43
ag43
ag43
ag43
ag43
ag43
ag43
ag43
ag43
ag43
ag43
ag43
ag1
(g5
S'\x13\x00\x00\x00\x00\x00\x00\x00'
p44
tp45
Rp46
ag46
ag46
ag46
ag46
ag46
ag46
ag46
ag46
ag46
ag46
ag46
ag46
ag46
ag46
ag46
ag46
ag46
ag46
ag46
ag46
ag46
ag46
ag46
ag46
ag46
ag46
ag46
ag46
ag46
ag46
ag46
ag46
ag46
ag46
ag46
ag46
ag46
ag46
ag46
ag46
ag46
ag46
ag46
ag46
ag46
ag46
ag46
ag46
ag46
ag46
ag46
ag46
ag46
ag46
ag46
ag46
ag46
ag46
ag1
(g5
S'\x14\x00\x00\x00\x00\x00\x00\x00'
p47
tp48
Rp49
ag49
ag49
ag49
ag49
ag49
ag49
ag49
ag49
ag49
ag49
ag49
ag49
ag49
ag49
ag49
ag49
ag49
ag49
ag49
ag49
ag49
ag49
ag49
ag49
ag49
ag49
ag49
ag49
ag49
ag49
ag49
ag49
ag49
ag49
ag49
ag49
ag49
ag49
ag49
ag49
ag49
ag49
ag49
ag49
ag49
ag49
ag49
ag49
ag49
ag49
ag49
ag49
ag49
ag49
ag49
ag49
ag49
ag49
ag1
(g5
S'\x15\x00\x00\x00\x00\x00\x00\x00'
p50
tp51
Rp52
ag52
ag52
ag52
ag52
ag52
ag52
ag52
ag52
ag52
ag52
ag52
ag52
ag52
ag52
ag52
ag52
ag52
ag52
ag52
ag52
ag52
ag52
ag52
ag52
ag52
ag52
ag52
ag52
ag52
ag52
ag52
ag52
ag52
ag52
ag52
ag52
ag52
ag52
ag52
ag52
ag52
ag52
ag52
ag52
ag52
ag52
ag52
ag52
ag52
ag52
ag52
ag52
ag52
ag52
ag52
ag52
ag52
ag52
ag52
ag1
(g5
S'\x16\x00\x00\x00\x00\x00\x00\x00'
p53
tp54
Rp55
ag55
ag55
ag55
ag55
ag55
ag55
ag55
ag55
ag55
ag55
ag55
ag55
ag55
ag55
ag55
ag55
ag55
ag55
ag55
ag55
ag55
ag55
ag55
ag55
ag55
ag55
ag55
ag55
ag55
ag55
ag55
ag55
ag55
ag55
ag55
ag55
ag55
ag55
ag55
ag55
ag55
ag55
ag55
ag55
ag55
ag55
ag55
ag55
ag55
ag55
ag55
ag55
ag55
ag55
ag55
ag1
(g5
S'\x18\x00\x00\x00\x00\x00\x00\x00'
p56
tp57
Rp58
ag58
ag58
ag58
ag58
ag58
ag58
ag58
ag58
ag58
ag58
ag58
ag58
ag58
ag58
ag58
ag58
ag58
ag58
ag58
ag58
ag58
ag58
ag58
ag58
ag58
ag58
ag58
ag58
ag58
ag58
ag58
ag58
ag58
ag58
ag58
ag58
ag58
ag58
ag58
ag58
ag58
ag58
ag58
ag58
ag58
ag58
ag58
ag58
ag58
ag58
ag58
ag1
(g5
S'\x19\x00\x00\x00\x00\x00\x00\x00'
p59
tp60
Rp61
ag61
ag61
ag61
ag61
ag61
ag61
ag61
ag61
ag61
ag61
ag61
ag61
ag61
ag61
ag61
ag61
ag61
ag61
ag61
ag61
ag61
ag61
ag61
ag61
ag61
ag61
ag61
ag61
ag61
ag61
ag61
ag61
ag61
ag61
ag61
ag61
ag61
ag61
ag61
ag61
ag61
ag61
ag61
ag61
ag61
ag61
ag61
ag61
ag61
ag61
ag61
ag61
ag61
ag61
ag61
ag61
ag61
ag61
ag61
ag1
(g5
S'\x1a\x00\x00\x00\x00\x00\x00\x00'
p62
tp63
Rp64
ag64
ag64
ag64
ag64
ag64
ag64
ag64
ag64
ag64
ag64
ag64
ag64
ag64
ag64
ag64
ag64
ag64
ag64
ag64
ag64
ag64
ag64
ag64
ag64
ag64
ag64
ag64
ag64
ag64
ag64
ag64
ag64
ag64
ag64
ag64
ag64
ag64
ag64
ag64
ag64
ag64
ag64
ag64
ag64
ag64
ag64
ag64
ag64
ag64
ag64
ag64
ag64
ag64
ag64
ag64
ag64
ag64
ag64
ag64
ag1
(g5
S'\x1b\x00\x00\x00\x00\x00\x00\x00'
p65
tp66
Rp67
ag67
ag67
ag67
ag67
ag67
ag67
ag67
ag67
ag67
ag67
ag67
ag67
ag67
ag67
ag67
ag67
ag67
ag67
ag67
ag67
ag67
ag67
ag67
ag67
ag67
ag67
ag67
ag67
ag67
ag67
ag67
ag67
ag67
ag67
ag67
ag67
ag67
ag67
ag67
ag67
ag67
ag67
ag67
ag67
ag67
ag67
ag67
ag67
ag67
ag67
ag67
ag67
ag67
ag67
ag67
ag67
ag67
ag67
ag67
ag1
(g5
S'\x1c\x00\x00\x00\x00\x00\x00\x00'
p68
tp69
Rp70
ag70
ag70
ag70
ag70
ag70
ag70
ag70
ag70
ag70
ag70
ag70
ag70
ag70
ag70
ag70
ag70
ag70
ag70
ag70
ag70
ag70
ag70
ag70
ag70
ag70
ag70
ag70
ag70
ag70
ag70
ag70
ag70
ag70
ag70
ag70
ag70
ag70
ag70
ag70
ag70
ag70
ag70
ag70
ag70
ag70
ag70
ag70
ag70
ag70
ag70
ag70
ag70
ag70
ag70
ag70
ag70
ag70
ag70
ag1
(g5
S'\x1e\x00\x00\x00\x00\x00\x00\x00'
p71
tp72
Rp73
ag73
ag73
ag73
ag73
ag73
ag73
ag73
ag73
ag73
ag73
ag73
ag73
ag73
ag73
ag73
ag73
ag73
ag73
ag73
ag73
ag73
ag73
ag73
ag73
ag73
ag73
ag73
ag73
ag73
ag73
ag73
ag73
ag73
ag73
ag73
ag73
ag73
ag73
ag73
ag73
ag73
ag73
ag73
ag73
ag73
ag73
ag73
ag73
ag73
ag73
ag73
ag73
ag73
ag73
ag73
ag73
ag73
ag73
ag73
ag1
(g5
S' \x00\x00\x00\x00\x00\x00\x00'
p74
tp75
Rp76
ag76
ag76
ag76
ag76
ag76
ag76
ag76
ag76
ag76
ag76
ag76
ag76
ag76
ag76
ag76
ag76
ag76
ag76
ag76
ag76
ag76
ag76
ag76
ag76
ag76
ag76
ag76
ag76
ag76
ag76
ag76
ag76
ag76
ag76
ag76
ag76
ag76
ag76
ag76
ag76
ag76
ag76
ag76
ag76
ag76
ag76
ag76
ag76
ag76
ag76
ag76
ag76
ag1
(g5
S"'\x00\x00\x00\x00\x00\x00\x00"
p77
tp78
Rp79
ag79
ag79
ag79
ag79
ag79
ag79
ag79
ag79
ag79
ag79
ag79
ag79
ag79
ag79
ag79
ag79
ag79
ag79
ag79
ag79
ag79
ag79
ag79
ag79
ag79
ag79
ag79
ag79
ag79
ag79
ag79
ag79
ag79
ag79
ag79
ag79
ag79
ag79
ag79
ag79
ag79
ag79
ag79
ag79
ag79
ag79
ag79
ag79
ag79
ag79
ag79
ag79
ag79
ag79
ag79
ag79
ag79
ag79
ag1
(g5
S'(\x00\x00\x00\x00\x00\x00\x00'
p80
tp81
Rp82
ag82
ag82
ag82
ag82
ag82
ag82
ag82
ag82
ag82
ag82
ag82
ag82
ag82
ag82
ag82
ag82
ag82
ag82
ag82
ag82
ag82
ag82
ag82
ag82
ag82
ag82
ag82
ag82
ag82
ag82
ag82
ag82
ag82
ag82
ag82
ag82
ag82
ag82
ag82
ag82
ag82
ag82
ag82
ag82
ag82
ag82
ag82
ag82
ag82
ag82
ag82
ag82
ag82
ag82
ag82
ag82
ag82
ag82
ag82
ag1
(g5
S')\x00\x00\x00\x00\x00\x00\x00'
p83
tp84
Rp85
ag85
ag85
ag85
ag85
ag85
ag85
ag85
ag85
ag85
ag85
ag85
ag85
ag85
ag85
ag85
ag85
ag85
ag85
ag85
ag85
ag85
ag85
ag85
ag85
ag85
ag85
ag85
ag85
ag85
ag85
ag85
ag85
ag85
ag85
ag85
ag85
ag85
ag85
ag85
ag85
ag85
ag85
ag85
ag85
ag85
ag85
ag85
ag85
ag85
ag85
ag85
ag85
ag85
ag85
ag85
ag85
ag85
ag85
ag85
ag1
(g5
S'*\x00\x00\x00\x00\x00\x00\x00'
p86
tp87
Rp88
ag88
ag88
ag88
ag88
ag88
ag88
ag88
ag88
ag88
ag88
ag88
ag88
ag88
ag88
ag88
ag88
ag88
ag88
ag88
ag88
ag88
ag88
ag88
ag88
ag88
ag88
ag88
ag88
ag88
ag88
ag88
ag88
ag88
ag88
ag88
ag88
ag88
ag88
ag88
ag88
ag88
ag88
ag88
ag88
ag88
ag88
ag88
ag88
ag88
ag88
ag88
ag88
ag88
ag88
ag88
ag88
ag88
ag88
ag88
ag1
(g5
S',\x00\x00\x00\x00\x00\x00\x00'
p89
tp90
Rp91
ag91
ag91
ag91
ag91
ag91
ag91
ag91
ag91
ag91
ag91
ag91
ag91
ag91
ag91
ag91
ag91
ag91
ag91
ag91
ag91
ag91
ag91
ag91
ag91
ag91
ag91
ag91
ag91
ag91
ag91
ag91
ag91
ag91
ag91
ag91
ag91
ag91
ag91
ag91
ag91
ag91
ag91
ag91
ag91
ag91
ag91
ag91
ag91
ag91
ag91
ag91
ag91
ag91
ag91
ag91
ag91
ag91
ag91
ag91
ag1
(g5
S'-\x00\x00\x00\x00\x00\x00\x00'
p92
tp93
Rp94
ag94
ag94
ag94
ag94
ag94
ag94
ag94
ag94
ag94
ag94
ag94
ag94
ag94
ag94
ag94
ag94
ag94
ag94
ag94
ag94
ag94
ag94
ag94
ag94
ag94
ag94
ag94
ag94
ag94
ag94
ag94
ag94
ag94
ag94
ag94
ag94
ag94
ag94
ag94
ag94
ag94
ag94
ag94
ag94
ag94
ag94
ag94
ag94
ag94
ag94
ag94
ag94
ag94
ag94
ag94
ag94
ag94
ag94
ag94
ag1
(g5
S'.\x00\x00\x00\x00\x00\x00\x00'
p95
tp96
Rp97
ag97
ag97
ag97
ag97
ag97
ag97
ag97
ag97
ag97
ag97
ag97
ag97
ag97
ag97
ag97
ag97
ag97
ag97
ag97
ag97
ag97
ag97
ag97
ag97
ag97
ag97
ag97
ag97
ag97
ag97
ag97
ag97
ag97
ag97
ag97
ag97
ag97
ag97
ag97
ag97
ag97
ag97
ag97
ag97
ag97
ag97
ag97
ag97
ag97
ag97
ag97
ag97
ag97
ag97
ag97
ag97
ag97
ag97
ag97
ag1
(g5
S'/\x00\x00\x00\x00\x00\x00\x00'
p98
tp99
Rp100
ag100
ag100
ag100
ag100
ag100
ag100
ag100
ag100
ag100
ag100
ag100
ag100
ag100
ag100
ag100
ag100
ag100
ag100
ag100
ag100
ag100
ag100
ag100
ag100
ag100
ag100
ag100
ag100
ag100
ag100
ag100
ag100
ag100
ag100
ag100
ag100
ag100
ag100
ag100
ag100
ag100
ag100
ag100
ag100
ag100
ag100
ag100
ag100
ag100
ag100
ag100
ag100
ag100
ag100
ag100
ag100
ag100
ag100
ag100
ag1
(g5
S'0\x00\x00\x00\x00\x00\x00\x00'
p101
tp102
Rp103
ag103
ag103
ag103
ag103
ag103
ag103
ag103
ag103
ag103
ag103
ag103
ag103
ag103
ag103
ag103
ag103
ag103
ag103
ag103
ag103
ag103
ag103
ag103
ag103
ag103
ag103
ag103
ag103
ag103
ag103
ag103
ag103
ag103
ag103
ag103
ag103
ag103
ag103
ag103
ag103
ag103
ag103
ag103
ag103
ag103
ag103
ag103
ag103
ag103
ag103
ag103
ag103
ag103
ag103
ag103
ag103
ag103
ag103
ag103
ag1
(g5
S'2\x00\x00\x00\x00\x00\x00\x00'
p104
tp105
Rp106
ag106
ag106
ag106
ag106
ag106
ag106
ag106
ag106
ag106
ag106
ag106
ag106
ag106
ag106
ag106
ag106
ag106
ag106
ag106
ag106
ag106
ag106
ag106
ag106
ag106
ag106
ag106
ag106
ag106
ag106
ag106
ag106
ag106
ag106
ag106
ag106
ag106
ag106
ag106
ag106
ag106
ag106
ag106
ag106
ag106
ag106
ag106
ag106
ag106
ag106
ag106
ag106
ag106
ag106
ag106
ag106
ag106
ag106
ag106
ag1
(g5
S'4\x00\x00\x00\x00\x00\x00\x00'
p107
tp108
Rp109
ag109
ag109
ag109
ag109
ag109
ag109
ag109
ag109
ag109
ag109
ag109
ag109
ag109
ag109
ag109
ag109
ag109
ag109
ag109
ag109
ag109
ag109
ag109
ag109
ag109
ag109
ag109
ag109
ag109
ag109
ag109
ag109
ag109
ag109
ag109
ag109
ag109
ag109
ag109
ag109
ag109
ag109
ag109
ag109
ag109
ag109
ag109
ag109
ag109
ag109
ag109
ag109
ag109
ag109
ag109
ag109
ag109
ag109
ag109
ag1
(g5
S'6\x00\x00\x00\x00\x00\x00\x00'
p110
tp111
Rp112
ag112
ag112
ag112
ag112
ag112
ag112
ag112
ag112
ag112
ag112
ag112
ag112
ag112
ag112
ag112
ag112
ag112
ag112
ag112
ag112
ag112
ag112
ag112
ag112
ag112
ag112
ag112
ag112
ag112
ag112
ag112
ag112
ag112
ag112
ag112
ag112
ag112
ag112
ag112
ag112
ag112
ag112
ag112
ag112
ag112
ag112
ag112
ag112
ag112
ag112
ag112
ag112
ag112
ag112
ag112
ag112
ag112
ag112
ag112
ag1
(g5
S'7\x00\x00\x00\x00\x00\x00\x00'
p113
tp114
Rp115
ag115
ag115
ag115
ag115
ag115
ag115
ag115
ag115
ag115
ag115
ag115
ag115
ag115
ag115
ag115
ag115
ag115
ag115
ag115
ag115
ag115
ag115
ag115
ag115
ag115
ag115
ag115
ag115
ag115
ag115
ag115
ag115
ag115
ag115
ag115
ag115
ag115
ag115
ag115
ag115
ag115
ag115
ag115
ag115
ag115
ag115
ag115
ag115
ag115
ag115
ag115
ag115
ag115
ag115
ag115
ag115
ag115
ag115
ag115
ag1
(g5
S'8\x00\x00\x00\x00\x00\x00\x00'
p116
tp117
Rp118
ag118
ag118
ag118
ag118
ag118
ag118
ag118
ag118
ag118
ag118
ag118
ag118
ag118
ag118
ag118
ag118
ag118
ag118
ag118
ag118
ag118
ag118
ag118
ag118
ag118
ag118
ag118
ag118
ag118
ag118
ag118
ag118
ag118
ag118
ag118
ag118
ag118
ag118
ag118
ag118
ag118
ag118
ag118
ag118
ag118
ag118
ag118
ag118
ag118
ag118
ag118
ag118
ag118
ag118
ag118
ag118
ag118
ag118
ag118
ag1
(g5
S'9\x00\x00\x00\x00\x00\x00\x00'
p119
tp120
Rp121
ag121
ag121
ag121
ag121
ag121
ag121
ag121
ag121
ag121
ag121
ag121
ag121
ag121
ag121
ag121
ag121
ag121
ag121
ag121
ag121
ag121
ag121
ag121
ag121
ag121
ag121
ag121
ag121
ag121
ag121
ag121
ag121
ag121
ag121
ag121
ag121
ag121
ag121
ag121
ag121
ag121
ag121
ag121
ag121
ag121
ag121
ag121
ag121
ag121
ag121
ag121
ag121
ag121
ag121
ag121
ag121
ag121
ag121
ag121
ag1
(g5
S':\x00\x00\x00\x00\x00\x00\x00'
p122
tp123
Rp124
ag124
ag124
ag124
ag124
ag124
ag124
ag124
ag124
ag124
ag124
ag124
ag124
ag124
ag124
ag124
ag124
ag124
ag124
ag124
ag124
ag124
ag124
ag124
ag124
ag124
ag124
ag124
ag124
ag124
ag124
ag124
ag124
ag124
ag124
ag124
ag124
ag124
ag124
ag124
ag124
ag124
ag124
ag124
ag124
ag124
ag124
ag124
ag124
ag124
ag124
ag124
ag124
ag124
ag124
ag124
ag124
ag124
ag1
(g5
S';\x00\x00\x00\x00\x00\x00\x00'
p125
tp126
Rp127
ag127
ag127
ag127
ag127
ag127
ag127
ag127
ag127
ag127
ag127
ag127
ag127
ag127
ag127
ag127
ag127
ag127
ag127
ag127
ag127
ag127
ag127
ag127
ag127
ag127
ag127
ag127
ag127
ag127
ag127
ag127
ag127
ag127
ag127
ag127
ag127
ag127
ag127
ag127
ag127
ag127
ag127
ag127
ag127
ag127
ag127
ag127
ag127
ag127
ag127
ag127
ag127
ag127
ag127
ag127
ag127
ag127
ag127
ag127
ag1
(g5
S'<\x00\x00\x00\x00\x00\x00\x00'
p128
tp129
Rp130
ag130
ag130
ag130
ag130
ag130
ag130
ag130
ag130
ag130
ag130
ag130
ag130
ag130
ag130
ag130
ag130
ag130
ag130
ag130
ag130
ag130
ag130
ag130
ag130
ag130
ag130
ag130
ag130
ag130
ag130
ag130
ag130
ag130
ag130
ag130
ag130
ag130
ag130
ag130
ag130
ag130
ag130
ag130
ag130
ag130
ag130
ag130
ag130
ag130
ag130
ag130
ag130
ag130
ag130
ag130
ag130
ag130
ag130
ag1
(g5
S'=\x00\x00\x00\x00\x00\x00\x00'
p131
tp132
Rp133
ag133
ag133
ag133
ag133
ag133
ag133
ag133
ag133
ag133
ag133
ag133
ag133
ag133
ag133
ag133
ag133
ag133
ag133
ag133
ag133
ag133
ag133
ag133
ag133
ag133
ag133
ag133
ag133
ag133
ag133
ag133
ag133
ag133
ag133
ag133
ag133
ag133
ag133
ag133
ag133
ag133
ag133
ag133
ag133
ag133
ag133
ag133
ag133
ag133
ag133
ag133
ag133
ag133
ag133
ag133
ag133
ag133
ag133
ag133
ag1
(g5
S'>\x00\x00\x00\x00\x00\x00\x00'
p134
tp135
Rp136
ag136
ag136
ag136
ag136
ag136
ag136
ag136
ag136
ag136
ag136
ag136
ag136
ag136
ag136
ag136
ag136
ag136
ag136
ag136
ag136
ag136
ag136
ag136
ag136
ag136
ag136
ag136
ag136
ag136
ag136
ag136
ag136
ag136
ag136
ag136
ag136
ag136
ag136
ag136
ag136
ag136
ag136
ag136
ag136
ag136
ag136
ag136
ag136
ag136
ag136
ag136
ag136
ag136
ag136
ag136
ag136
ag136
ag136
ag136
ag1
(g5
S'?\x00\x00\x00\x00\x00\x00\x00'
p137
tp138
Rp139
ag139
ag139
ag139
ag139
ag139
ag139
ag139
ag139
ag139
ag139
ag139
ag139
ag139
ag139
ag139
ag139
ag139
ag139
ag139
ag139
ag139
ag139
ag139
ag139
ag139
ag139
ag139
ag139
ag139
ag139
ag139
ag139
ag139
ag139
ag139
ag139
ag139
ag139
ag139
ag139
ag139
ag139
ag139
ag139
ag139
ag139
ag139
ag139
ag139
ag139
ag139
ag139
ag139
ag139
ag139
ag139
ag139
ag139
ag139
ag1
(g5
S'@\x00\x00\x00\x00\x00\x00\x00'
p140
tp141
Rp142
ag142
ag142
ag142
ag142
ag142
ag142
ag142
ag142
ag142
ag142
ag142
ag142
ag142
ag142
ag142
ag142
ag142
ag142
ag142
ag142
ag142
ag142
ag142
ag142
ag142
ag142
ag142
ag142
ag142
ag142
ag142
ag142
ag142
ag142
ag142
ag142
ag142
ag142
ag142
ag142
ag142
ag142
ag142
ag142
ag142
ag142
ag142
ag142
ag142
ag142
ag142
ag142
ag142
ag142
ag142
ag142
ag142
ag142
ag142
ag1
(g5
S'A\x00\x00\x00\x00\x00\x00\x00'
p143
tp144
Rp145
ag145
ag145
ag145
ag145
ag145
ag145
ag145
ag145
ag145
ag145
ag145
ag145
ag145
ag145
ag145
ag145
ag145
ag145
ag145
ag145
ag145
ag145
ag145
ag145
ag145
ag145
ag145
ag145
ag145
ag145
ag145
ag145
ag145
ag145
ag145
ag145
ag145
ag145
ag145
ag145
ag145
ag145
ag145
ag145
ag145
ag145
ag145
ag145
ag145
ag1
(g5
S'C\x00\x00\x00\x00\x00\x00\x00'
p146
tp147
Rp148
ag148
ag148
ag148
ag148
ag148
ag148
ag148
ag148
ag148
ag148
ag148
ag148
ag148
ag148
ag148
ag148
ag148
ag148
ag148
ag148
ag148
ag148
ag148
ag148
ag148
ag148
ag148
ag148
ag148
ag148
ag148
ag148
ag148
ag148
ag148
ag148
ag148
ag148
ag148
ag148
ag148
ag148
ag148
ag148
ag148
ag148
ag148
ag148
ag148
ag148
ag148
ag148
ag148
ag148
ag148
ag148
ag148
ag148
ag148
ag1
(g5
S'D\x00\x00\x00\x00\x00\x00\x00'
p149
tp150
Rp151
ag151
ag151
ag151
ag151
ag151
ag151
ag151
ag151
ag151
ag151
ag151
ag151
ag151
ag151
ag151
ag151
ag151
ag151
ag151
ag151
ag151
ag151
ag151
ag151
ag151
ag151
ag151
ag151
ag151
ag151
ag151
ag151
ag151
ag151
ag151
ag151
ag151
ag151
ag151
ag151
ag151
ag151
ag151
ag151
ag151
ag151
ag151
ag151
ag151
ag151
ag151
ag151
ag151
ag151
ag151
ag151
ag151
ag151
ag151
ag1
(g5
S'E\x00\x00\x00\x00\x00\x00\x00'
p152
tp153
Rp154
ag154
ag154
ag154
ag154
ag154
ag154
ag154
ag154
ag154
ag154
ag154
ag154
ag154
ag154
ag154
ag154
ag154
ag154
ag154
ag154
ag154
ag154
ag154
ag154
ag154
ag154
ag154
ag154
ag154
ag154
ag154
ag154
ag154
ag154
ag154
ag154
ag154
ag154
ag154
ag154
ag154
ag154
ag154
ag154
ag154
ag154
ag154
ag154
ag154
ag154
ag154
ag154
ag154
ag154
ag154
ag154
ag154
ag154
ag154
ag1
(g5
S'F\x00\x00\x00\x00\x00\x00\x00'
p155
tp156
Rp157
ag157
ag157
ag157
ag157
ag157
ag157
ag157
ag157
ag157
ag157
ag157
ag157
ag157
ag157
ag157
ag157
ag157
ag157
ag157
ag157
ag157
ag157
ag157
ag157
ag157
ag157
ag157
ag157
ag157
ag157
ag157
ag157
ag157
ag157
ag157
ag157
ag157
ag157
ag157
ag157
ag157
ag157
ag157
ag157
ag157
ag157
ag157
ag157
ag157
ag157
ag157
ag157
ag157
ag157
ag157
ag157
ag157
ag157
ag157
ag1
(g5
S'G\x00\x00\x00\x00\x00\x00\x00'
p158
tp159
Rp160
ag160
ag160
ag160
ag160
ag160
ag160
ag160
ag160
ag160
ag160
ag160
ag160
ag160
ag160
ag160
ag160
ag160
ag160
ag160
ag160
ag160
ag160
ag160
ag160
ag160
ag160
ag160
ag160
ag160
ag160
ag160
ag160
ag160
ag160
ag160
ag160
ag160
ag160
ag160
ag160
ag160
ag160
ag160
ag160
ag160
ag160
ag160
ag160
ag160
ag160
ag160
ag160
ag160
ag160
ag160
ag160
ag160
ag160
ag160
ag1
(g5
S'I\x00\x00\x00\x00\x00\x00\x00'
p161
tp162
Rp163
ag163
ag163
ag163
ag163
ag163
ag163
ag163
ag163
ag163
ag163
ag163
ag163
ag163
ag163
ag163
ag163
ag163
ag163
ag163
ag163
ag163
ag163
ag163
ag163
ag163
ag163
ag163
ag163
ag163
ag163
ag163
ag163
ag163
ag163
ag163
ag163
ag163
ag163
ag163
ag163
ag163
ag163
ag163
ag163
ag163
ag163
ag163
ag163
ag163
ag163
ag163
ag163
ag163
ag163
ag163
ag163
ag163
ag163
ag163
ag1
(g5
S'J\x00\x00\x00\x00\x00\x00\x00'
p164
tp165
Rp166
ag166
ag166
ag166
ag166
ag166
ag166
ag166
ag166
ag166
ag166
ag166
ag166
ag166
ag166
ag166
ag166
ag166
ag166
ag166
ag166
ag166
ag166
ag166
ag166
ag166
ag166
ag166
ag166
ag166
ag166
ag166
ag166
ag166
ag166
ag166
ag166
ag166
ag166
ag166
ag166
ag166
ag166
ag166
ag166
ag166
ag166
ag166
ag166
ag166
ag166
ag166
ag166
ag166
ag166
ag166
ag166
ag166
ag166
ag166
ag1
(g5
S'K\x00\x00\x00\x00\x00\x00\x00'
p167
tp168
Rp169
ag169
ag169
ag169
ag169
ag169
ag169
ag169
ag169
ag169
ag169
ag169
ag169
ag169
ag169
ag169
ag169
ag169
ag169
ag169
ag169
ag169
ag169
ag169
ag169
ag169
ag169
ag169
ag169
ag169
ag169
ag169
ag169
ag169
ag169
ag169
ag169
ag169
ag169
ag169
ag169
ag169
ag169
ag169
ag169
ag169
ag169
ag169
ag169
ag169
ag169
ag169
ag169
ag169
ag169
ag169
ag169
ag1
(g5
S'L\x00\x00\x00\x00\x00\x00\x00'
p170
tp171
Rp172
ag172
ag172
ag172
ag172
ag172
ag172
ag172
ag172
ag172
ag172
ag172
ag172
ag172
ag172
ag172
ag172
ag172
ag172
ag172
ag172
ag172
ag172
ag172
ag172
ag172
ag172
ag172
ag172
ag172
ag172
ag172
ag172
ag172
ag172
ag172
ag172
ag172
ag172
ag172
ag172
ag172
ag172
ag172
ag172
ag172
ag172
ag172
ag172
ag172
ag172
ag172
ag172
ag172
ag172
ag172
ag172
ag172
ag172
ag172
ag1
(g5
S'M\x00\x00\x00\x00\x00\x00\x00'
p173
tp174
Rp175
ag175
ag175
ag175
ag175
ag175
ag175
ag175
ag175
ag175
ag175
ag175
ag175
ag175
ag175
ag175
ag175
ag175
ag175
ag175
ag175
ag175
ag175
ag175
ag175
ag175
ag175
ag175
ag175
ag175
ag175
ag175
ag175
ag175
ag175
ag175
ag175
ag175
ag175
ag175
ag175
ag175
ag175
ag175
ag175
ag175
ag175
ag175
ag175
ag175
ag175
ag175
ag175
ag175
ag175
ag175
ag175
ag175
ag175
ag175
ag1
(g5
S'N\x00\x00\x00\x00\x00\x00\x00'
p176
tp177
Rp178
ag178
ag178
ag178
ag178
ag178
ag178
ag178
ag178
ag178
ag178
ag178
ag178
ag178
ag178
ag178
ag178
ag178
ag178
ag178
ag178
ag178
ag178
ag178
ag178
ag178
ag178
ag178
ag178
ag178
ag178
ag178
ag178
ag178
ag178
ag178
ag178
ag178
ag178
ag178
ag178
ag178
ag178
ag178
ag178
ag178
ag178
ag178
ag178
ag178
ag178
ag178
ag178
ag178
ag178
ag178
ag178
ag178
ag178
ag1
(g5
S'P\x00\x00\x00\x00\x00\x00\x00'
p179
tp180
Rp181
ag181
ag181
ag181
ag181
ag181
ag181
ag181
ag181
ag181
ag181
ag181
ag181
ag181
ag181
ag181
ag181
ag181
ag181
ag181
ag181
ag181
ag181
ag181
ag181
ag181
ag181
ag181
ag181
ag181
ag181
ag181
ag181
ag181
ag181
ag181
ag181
ag181
ag181
ag181
ag181
ag181
ag181
ag181
ag181
ag181
ag181
ag181
ag181
ag181
ag181
ag181
ag181
ag181
ag181
ag181
ag181
ag181
ag181
ag181
ag1
(g5
S'Q\x00\x00\x00\x00\x00\x00\x00'
p182
tp183
Rp184
ag184
ag184
ag184
ag184
ag184
ag184
ag184
ag184
ag184
ag184
ag184
ag184
ag184
ag184
ag184
ag184
ag184
ag184
ag184
ag184
ag184
ag184
ag184
ag184
ag184
ag184
ag184
ag184
ag184
ag184
ag184
ag184
ag184
ag184
ag184
ag184
ag184
ag184
ag184
ag184
ag184
ag184
ag184
ag184
ag184
ag184
ag184
ag184
ag184
ag184
ag184
ag184
ag184
ag184
ag184
ag184
ag184
ag184
ag184
ag1
(g5
S'R\x00\x00\x00\x00\x00\x00\x00'
p185
tp186
Rp187
ag187
ag187
ag187
ag187
ag187
ag187
ag187
ag187
ag187
ag187
ag187
ag187
ag187
ag187
ag187
ag187
ag187
ag187
ag187
ag187
ag187
ag187
ag187
ag187
ag187
ag187
ag187
ag187
ag187
ag187
ag187
ag187
ag187
ag187
ag187
ag187
ag187
ag187
ag187
ag187
ag187
ag187
ag187
ag187
ag187
ag187
ag187
ag187
ag187
ag187
ag187
ag187
ag187
ag187
ag187
ag187
ag187
ag187
ag187
ag1
(g5
S'U\x00\x00\x00\x00\x00\x00\x00'
p188
tp189
Rp190
ag190
ag190
ag190
ag190
ag190
ag190
ag190
ag190
ag190
ag190
ag190
ag190
ag190
ag190
ag190
ag190
ag190
ag190
ag190
ag190
ag190
ag190
ag190
ag190
ag190
ag190
ag190
ag190
ag190
ag190
ag190
ag190
ag190
ag190
ag190
ag190
ag190
ag190
ag190
ag190
ag190
ag190
ag190
ag190
ag190
ag190
ag190
ag190
ag190
ag190
ag190
ag190
ag190
ag190
ag190
ag190
ag190
ag190
ag190
ag1
(g5
S'W\x00\x00\x00\x00\x00\x00\x00'
p191
tp192
Rp193
ag193
ag193
ag193
ag193
ag193
ag193
ag193
ag193
ag193
ag193
ag193
ag193
ag193
ag193
ag193
ag193
ag193
ag193
ag193
ag193
ag193
ag193
ag193
ag193
ag193
ag193
ag193
ag193
ag193
ag193
ag193
ag193
ag193
ag193
ag193
ag193
ag193
ag193
ag193
ag193
ag193
ag193
ag193
ag193
ag193
ag193
ag193
ag193
ag193
ag193
ag193
ag193
ag193
ag193
ag193
ag193
ag193
ag193
ag193
ag1
(g5
S'X\x00\x00\x00\x00\x00\x00\x00'
p194
tp195
Rp196
ag196
ag196
ag196
ag196
ag196
ag196
ag196
ag196
ag196
ag196
ag196
ag196
ag196
ag196
ag196
ag196
ag196
ag196
ag196
ag196
ag196
ag196
ag196
ag196
ag196
ag196
ag196
ag196
ag196
ag196
ag196
ag196
ag196
ag196
ag196
ag196
ag196
ag196
ag196
ag196
ag196
ag196
ag196
ag196
ag196
ag196
ag196
ag196
ag196
ag196
ag196
ag196
ag196
ag196
ag196
ag196
ag196
ag196
ag196
ag1
(g5
S'Y\x00\x00\x00\x00\x00\x00\x00'
p197
tp198
Rp199
ag199
ag199
ag199
ag199
ag199
ag199
ag199
ag199
ag199
ag199
ag199
ag199
ag199
ag199
ag199
ag199
ag199
ag199
ag199
ag199
ag199
ag199
ag199
ag199
ag199
ag199
ag199
ag199
ag199
ag199
ag199
ag199
ag199
ag199
ag199
ag199
ag199
ag199
ag199
ag199
ag199
ag199
ag199
ag199
ag199
ag199
ag199
ag199
ag199
ag199
ag199
ag199
ag199
ag199
ag199
ag199
ag199
ag199
ag199
ag1
(g5
S'Z\x00\x00\x00\x00\x00\x00\x00'
p200
tp201
Rp202
ag202
ag202
ag202
ag202
ag202
ag202
ag202
ag202
ag202
ag202
ag202
ag202
ag202
ag202
ag202
ag202
ag202
ag202
ag202
ag202
ag202
ag202
ag202
ag202
ag202
ag202
ag202
ag202
ag202
ag202
ag202
ag202
ag202
ag202
ag202
ag202
ag202
ag202
ag202
ag202
ag202
ag202
ag202
ag202
ag202
ag202
ag202
ag202
ag202
ag202
ag202
ag202
ag202
ag202
ag202
ag202
ag202
ag202
ag202
ag1
(g5
S'\\\x00\x00\x00\x00\x00\x00\x00'
p203
tp204
Rp205
ag205
ag205
ag205
ag205
ag205
ag205
ag205
ag205
ag205
ag205
ag205
ag205
ag205
ag205
ag205
ag205
ag205
ag205
ag205
ag205
ag205
ag205
ag205
ag205
ag205
ag205
ag205
ag205
ag205
ag205
ag205
ag205
ag205
ag205
ag205
ag205
ag205
ag205
ag205
ag205
ag205
ag205
ag205
ag205
ag205
ag205
ag205
ag205
ag205
ag205
ag205
ag205
ag205
ag205
ag205
ag205
ag205
ag205
ag205
ag1
(g5
S']\x00\x00\x00\x00\x00\x00\x00'
p206
tp207
Rp208
ag208
ag208
ag208
ag208
ag208
ag208
ag208
ag208
ag208
ag208
ag208
ag208
ag208
ag208
ag208
ag208
ag208
ag208
ag208
ag208
ag208
ag208
ag208
ag208
ag208
ag208
ag208
ag208
ag208
ag208
ag208
ag208
ag208
ag208
ag208
ag208
ag208
ag208
ag208
ag208
ag208
ag208
ag208
ag208
ag208
ag208
ag208
ag208
ag208
ag208
ag208
ag208
ag208
ag208
ag208
ag208
ag208
ag208
ag208
ag1
(g5
S'^\x00\x00\x00\x00\x00\x00\x00'
p209
tp210
Rp211
ag211
ag211
ag211
ag211
ag211
ag211
ag211
ag211
ag211
ag211
ag211
ag211
ag211
ag211
ag211
ag211
ag211
ag211
ag211
ag211
ag211
ag211
ag211
ag211
ag211
ag211
ag211
ag211
ag211
ag211
ag211
ag211
ag211
ag211
ag211
ag211
ag211
ag211
ag211
ag211
ag211
ag211
ag211
ag211
ag211
ag211
ag211
ag211
ag211
ag211
ag211
ag211
ag211
ag211
ag211
ag211
ag211
ag211
ag211
ag1
(g5
S'a\x00\x00\x00\x00\x00\x00\x00'
p212
tp213
Rp214
ag214
ag214
ag214
ag214
ag214
ag214
ag214
ag214
ag214
ag214
ag214
ag214
ag214
ag214
ag214
ag214
ag214
ag214
ag214
ag214
ag214
ag214
ag214
ag214
ag214
ag214
ag214
ag214
ag214
ag214
ag214
ag214
ag214
ag214
ag214
ag214
ag214
ag214
ag214
ag214
ag214
ag214
ag214
ag214
ag214
ag214
ag214
ag214
ag214
ag214
ag214
ag214
ag214
ag214
ag214
ag214
ag214
ag214
ag1
(g5
S'c\x00\x00\x00\x00\x00\x00\x00'
p215
tp216
Rp217
ag217
ag217
ag217
ag217
ag217
ag217
ag217
ag217
ag217
ag217
ag217
ag217
ag217
ag217
ag217
ag217
ag217
ag217
ag217
ag217
ag217
ag217
ag217
ag217
ag217
ag217
ag217
ag217
ag217
ag217
ag217
ag217
ag217
ag217
ag217
ag217
ag217
ag217
ag217
ag217
ag217
ag217
ag217
ag217
ag217
ag217
ag217
ag217
ag217
ag217
ag217
ag217
ag217
ag217
ag217
ag217
ag217
ag217
ag217
ag1
(g5
S'd\x00\x00\x00\x00\x00\x00\x00'
p218
tp219
Rp220
ag220
ag220
ag220
ag220
ag220
ag220
ag220
ag220
ag220
ag220
ag220
ag220
ag220
ag220
ag220
ag220
ag220
ag220
ag220
ag220
ag220
ag220
ag220
ag220
ag220
ag220
ag220
ag220
ag220
ag220
ag220
ag220
ag220
ag220
ag220
ag220
ag220
ag220
ag220
ag220
ag220
ag220
ag220
ag220
ag220
ag220
ag220
ag220
ag220
ag220
ag220
ag220
ag220
ag220
ag220
ag220
ag220
ag220
ag220
ag1
(g5
S'h\x00\x00\x00\x00\x00\x00\x00'
p221
tp222
Rp223
ag223
ag223
ag223
ag223
ag223
ag223
ag223
ag223
ag223
ag223
ag223
ag223
ag223
ag223
ag223
ag223
ag223
ag223
ag223
ag223
ag223
ag223
ag223
ag223
ag223
ag223
ag223
ag223
ag223
ag223
ag223
ag223
ag223
ag223
ag223
ag223
ag223
ag223
ag223
ag223
ag223
ag223
ag223
ag223
ag223
ag223
ag223
ag223
ag223
ag223
ag223
ag223
ag223
ag223
ag223
ag223
ag223
ag223
ag223
ag1
(g5
S'i\x00\x00\x00\x00\x00\x00\x00'
p224
tp225
Rp226
ag226
ag226
ag226
ag226
ag226
ag226
ag226
ag226
ag226
ag226
ag226
ag226
ag226
ag226
ag226
ag226
ag226
ag226
ag226
ag226
ag226
ag226
ag226
ag226
ag226
ag226
ag226
ag226
ag226
ag226
ag226
ag226
ag226
ag226
ag226
ag226
ag226
ag226
ag226
ag226
ag226
ag226
ag226
ag226
ag226
ag226
ag226
ag226
ag1
(g5
S'j\x00\x00\x00\x00\x00\x00\x00'
p227
tp228
Rp229
ag229
ag229
ag229
ag229
ag229
ag229
ag229
ag229
ag229
ag229
ag229
ag229
ag229
ag229
ag229
ag229
ag229
ag229
ag229
ag229
ag229
ag229
ag229
ag229
ag229
ag229
ag229
ag229
ag229
ag229
ag229
ag229
ag229
ag229
ag229
ag229
ag229
ag229
ag229
ag229
ag229
ag229
ag229
ag229
ag229
ag229
ag229
ag229
ag229
ag229
ag229
ag229
ag229
ag229
ag229
ag229
ag229
ag229
ag229
ag1
(g5
S'k\x00\x00\x00\x00\x00\x00\x00'
p230
tp231
Rp232
ag232
ag232
ag232
ag232
ag232
ag232
ag232
ag232
ag232
ag232
ag232
ag232
ag232
ag232
ag232
ag232
ag232
ag232
ag232
ag232
ag232
ag232
ag232
ag232
ag232
ag232
ag232
ag232
ag232
ag232
ag232
ag232
ag232
ag232
ag232
ag232
ag232
ag232
ag232
ag232
ag232
ag232
ag232
ag232
ag232
ag232
ag232
ag232
ag232
ag232
ag232
ag232
ag232
ag232
ag232
ag232
ag232
ag232
ag1
(g5
S'l\x00\x00\x00\x00\x00\x00\x00'
p233
tp234
Rp235
ag235
ag235
ag235
ag235
ag235
ag235
ag235
ag235
ag235
ag235
ag235
ag235
ag235
ag235
ag235
ag235
ag235
ag235
ag235
ag235
ag235
ag235
ag235
ag235
ag235
ag235
ag235
ag235
ag235
ag235
ag235
ag235
ag235
ag235
ag235
ag235
ag235
ag235
ag235
ag235
ag235
ag235
ag235
ag235
ag235
ag235
ag235
ag235
ag235
ag235
ag235
ag235
ag235
ag235
ag235
ag235
ag235
ag235
ag235
ag1
(g5
S'm\x00\x00\x00\x00\x00\x00\x00'
p236
tp237
Rp238
ag238
ag238
ag238
ag238
ag238
ag238
ag238
ag238
ag238
ag238
ag238
ag238
ag238
ag238
ag238
ag238
ag238
ag238
ag238
ag238
ag238
ag238
ag238
ag238
ag238
ag238
ag238
ag238
ag238
ag238
ag238
ag238
ag238
ag238
ag238
ag238
ag238
ag238
ag238
ag238
ag238
ag238
ag238
ag238
ag238
ag238
ag238
ag238
ag238
ag238
ag238
ag238
ag238
ag238
ag238
ag238
ag238
ag238
ag238
ag1
(g5
S'n\x00\x00\x00\x00\x00\x00\x00'
p239
tp240
Rp241
ag241
ag241
ag241
ag241
ag241
ag241
ag241
ag241
ag241
ag241
ag241
ag241
ag241
ag241
ag241
ag241
ag241
ag241
ag241
ag241
ag241
ag241
ag241
ag241
ag241
ag241
ag241
ag241
ag241
ag241
ag241
ag241
ag241
ag241
ag241
ag241
ag241
ag241
ag241
ag241
ag241
ag241
ag241
ag241
ag241
ag241
ag241
ag241
ag241
ag241
ag241
ag241
ag241
ag241
ag241
ag241
ag241
ag241
ag241
ag1
(g5
S'o\x00\x00\x00\x00\x00\x00\x00'
p242
tp243
Rp244
ag244
ag244
ag244
ag244
ag244
ag244
ag244
ag244
ag244
ag244
ag244
ag244
ag244
ag244
ag244
ag244
ag244
ag244
ag244
ag244
ag244
ag244
ag244
ag244
ag244
ag244
ag244
ag244
ag244
ag244
ag244
ag244
ag244
ag244
ag244
ag244
ag244
ag244
ag244
ag244
ag244
ag244
ag244
ag244
ag244
ag244
ag244
ag244
ag244
ag244
ag244
ag244
ag244
ag244
ag244
ag244
ag244
ag244
ag244
ag1
(g5
S'q\x00\x00\x00\x00\x00\x00\x00'
p245
tp246
Rp247
ag247
ag247
ag247
ag247
ag247
ag247
ag247
ag247
ag247
ag247
ag247
ag247
ag247
ag247
ag247
ag247
ag247
ag247
ag247
ag247
ag247
ag247
ag247
ag247
ag247
ag247
ag247
ag247
ag247
ag247
ag247
ag247
ag247
ag247
ag247
ag247
ag247
ag247
ag247
ag247
ag247
ag247
ag247
ag247
ag247
ag247
ag247
ag247
ag247
ag1
(g5
S's\x00\x00\x00\x00\x00\x00\x00'
p248
tp249
Rp250
ag250
ag250
ag250
ag250
ag250
ag250
ag250
ag250
ag250
ag250
ag250
ag250
ag250
ag250
ag250
ag250
ag250
ag250
ag250
ag250
ag250
ag250
ag250
ag250
ag250
ag250
ag250
ag250
ag250
ag250
ag250
ag250
ag250
ag250
ag250
ag250
ag250
ag250
ag250
ag250
ag250
ag250
ag250
ag250
ag250
ag250
ag250
ag250
ag250
ag250
ag250
ag250
ag250
ag250
ag250
ag250
ag250
ag250
ag1
(g5
S't\x00\x00\x00\x00\x00\x00\x00'
p251
tp252
Rp253
ag253
ag253
ag253
ag253
ag253
ag253
ag253
ag253
ag253
ag253
ag253
ag253
ag253
ag253
ag253
ag253
ag253
ag253
ag253
ag253
ag253
ag253
ag253
ag253
ag253
ag253
ag253
ag253
ag253
ag253
ag253
ag253
ag253
ag253
ag253
ag253
ag253
ag253
ag253
ag253
ag253
ag253
ag253
ag253
ag253
ag253
ag253
ag253
ag253
ag253
ag253
ag253
ag253
ag253
ag253
ag253
ag253
ag253
ag253
ag1
(g5
S'u\x00\x00\x00\x00\x00\x00\x00'
p254
tp255
Rp256
ag256
ag256
ag256
ag256
ag256
ag256
ag256
ag256
ag256
ag256
ag256
ag256
ag256
ag256
ag256
ag256
ag256
ag256
ag256
ag256
ag256
ag256
ag256
ag256
ag256
ag256
ag256
ag256
ag256
ag256
ag256
ag256
ag256
ag256
ag256
ag256
ag256
ag256
ag256
ag256
ag256
ag256
ag256
ag256
ag256
ag256
ag256
ag256
ag256
ag256
ag256
ag256
ag256
ag256
ag256
ag256
ag256
ag256
ag1
(g5
S'v\x00\x00\x00\x00\x00\x00\x00'
p257
tp258
Rp259
ag259
ag259
ag259
ag259
ag259
ag259
ag259
ag259
ag259
ag259
ag259
ag259
ag259
ag259
ag259
ag259
ag259
ag259
ag259
ag259
ag259
ag259
ag259
ag259
ag259
ag259
ag259
ag259
ag259
ag259
ag259
ag259
ag259
ag259
ag259
ag259
ag259
ag259
ag259
ag259
ag259
ag259
ag259
ag259
ag259
ag259
ag259
ag259
ag259
ag259
ag259
ag259
ag259
ag259
ag259
ag259
ag259
ag259
ag259
ag1
(g5
S'x\x00\x00\x00\x00\x00\x00\x00'
p260
tp261
Rp262
ag262
ag262
ag262
ag262
ag262
ag262
ag262
ag262
ag262
ag262
ag262
ag262
ag262
ag262
ag262
ag262
ag262
ag262
ag262
ag262
ag262
ag262
ag262
ag262
ag262
ag262
ag262
ag262
ag262
ag262
ag262
ag262
ag262
ag262
ag262
ag262
ag262
ag262
ag262
ag262
ag262
ag262
ag262
ag262
ag262
ag262
ag262
ag262
ag262
ag262
ag262
ag262
ag262
ag262
ag262
ag262
ag262
ag262
ag262
ag1
(g5
S'z\x00\x00\x00\x00\x00\x00\x00'
p263
tp264
Rp265
ag265
ag265
ag265
ag265
ag265
ag265
ag265
ag265
ag265
ag265
ag265
ag265
ag265
ag265
ag265
ag265
ag265
ag265
ag265
ag265
ag265
ag265
ag265
ag265
ag265
ag265
ag265
ag265
ag265
ag265
ag265
ag265
ag265
ag265
ag265
ag265
ag265
ag265
ag265
ag265
ag265
ag265
ag265
ag265
ag265
ag265
ag265
ag265
ag265
ag265
ag265
ag265
ag265
ag265
ag265
ag265
ag265
ag265
ag265
ag1
(g5
S'{\x00\x00\x00\x00\x00\x00\x00'
p266
tp267
Rp268
ag268
ag268
ag268
ag268
ag268
ag268
ag268
ag268
ag268
ag268
ag268
ag268
ag268
ag268
ag268
ag268
ag268
ag268
ag268
ag268
ag268
ag268
ag268
ag268
ag268
ag268
ag268
ag268
ag268
ag268
ag268
ag268
ag268
ag268
ag268
ag268
ag268
ag268
ag268
ag268
ag268
ag268
ag268
ag268
ag268
ag268
ag268
ag268
ag268
ag268
ag268
ag268
ag268
ag268
ag268
ag268
ag268
ag268
ag268
ag1
(g5
S'|\x00\x00\x00\x00\x00\x00\x00'
p269
tp270
Rp271
ag271
ag271
ag271
ag271
ag271
ag271
ag271
ag271
ag271
ag271
ag271
ag271
ag271
ag271
ag271
ag271
ag271
ag271
ag271
ag271
ag271
ag271
ag271
ag271
ag271
ag271
ag271
ag271
ag271
ag271
ag271
ag271
ag271
ag271
ag271
ag271
ag271
ag271
ag271
ag271
ag271
ag271
ag271
ag271
ag271
ag271
ag271
ag271
ag271
ag271
ag271
ag271
ag271
ag271
ag271
ag271
ag271
ag271
ag1
(g5
S'}\x00\x00\x00\x00\x00\x00\x00'
p272
tp273
Rp274
ag274
ag274
ag274
ag274
ag274
ag274
ag274
ag274
ag274
ag274
ag274
ag274
ag274
ag274
ag274
ag274
ag274
ag274
ag274
ag274
ag274
ag274
ag274
ag274
ag274
ag274
ag274
ag274
ag274
ag274
ag274
ag274
ag274
ag274
ag274
ag274
ag274
ag274
ag274
ag274
ag274
ag274
ag274
ag274
ag274
ag274
ag274
ag274
ag274
ag274
ag274
ag274
ag274
ag274
ag274
ag274
ag274
ag274
ag1
(g5
S'~\x00\x00\x00\x00\x00\x00\x00'
p275
tp276
Rp277
ag277
ag277
ag277
ag277
ag277
ag277
ag277
ag277
ag277
ag277
ag277
ag277
ag277
ag277
ag277
ag277
ag277
ag277
ag277
ag277
ag277
ag277
ag277
ag277
ag277
ag277
ag277
ag277
ag277
ag277
ag277
ag277
ag277
ag277
ag277
ag277
ag277
ag277
ag277
ag277
ag277
ag277
ag277
ag277
ag277
ag277
ag277
ag277
ag277
ag277
ag277
ag277
ag277
ag277
ag277
ag277
ag277
ag277
ag1
(g5
S'\x7f\x00\x00\x00\x00\x00\x00\x00'
p278
tp279
Rp280
ag280
ag280
ag280
ag280
ag280
ag280
ag280
ag280
ag280
ag280
ag280
ag280
ag280
ag280
ag280
ag280
ag280
ag280
ag280
ag280
ag280
ag280
ag280
ag280
ag280
ag280
ag280
ag280
ag280
ag280
ag280
ag280
ag280
ag280
ag280
ag280
ag280
ag280
ag280
ag280
ag280
ag280
ag280
ag280
ag280
ag280
ag280
ag280
ag280
ag280
ag280
ag280
ag280
ag280
ag280
ag280
ag280
ag280
ag280
ag1
(g5
S'\x80\x00\x00\x00\x00\x00\x00\x00'
p281
tp282
Rp283
ag283
ag283
ag283
ag283
ag283
ag283
ag283
ag283
ag283
ag283
ag283
ag283
ag283
ag283
ag283
ag283
ag283
ag283
ag283
ag283
ag283
ag283
ag283
ag283
ag283
ag283
ag283
ag283
ag283
ag283
ag283
ag283
ag283
ag283
ag283
ag283
ag283
ag283
ag283
ag283
ag283
ag283
ag283
ag283
ag283
ag283
ag283
ag283
ag283
ag283
ag283
ag283
ag283
ag283
ag283
ag283
ag283
ag283
ag283
ag1
(g5
S'\x81\x00\x00\x00\x00\x00\x00\x00'
p284
tp285
Rp286
ag286
ag286
ag286
ag286
ag286
ag286
ag286
ag286
ag286
ag286
ag286
ag286
ag286
ag286
ag286
ag286
ag286
ag286
ag286
ag286
ag286
ag286
ag286
ag286
ag286
ag286
ag286
ag286
ag286
ag286
ag286
ag286
ag286
ag286
ag286
ag286
ag286
ag286
ag286
ag286
ag286
ag286
ag286
ag286
ag286
ag286
ag286
ag286
ag286
ag286
ag286
ag286
ag286
ag286
ag286
ag286
ag286
ag286
ag286
ag1
(g5
S'\x83\x00\x00\x00\x00\x00\x00\x00'
p287
tp288
Rp289
ag289
ag289
ag289
ag289
ag289
ag289
ag289
ag289
ag289
ag289
ag289
ag289
ag289
ag289
ag289
ag289
ag289
ag289
ag289
ag289
ag289
ag289
ag289
ag289
ag289
ag289
ag289
ag289
ag289
ag289
ag289
ag289
ag289
ag289
ag289
ag289
ag289
ag289
ag289
ag289
ag289
ag289
ag289
ag289
ag289
ag289
ag289
ag289
ag289
ag289
ag289
ag289
ag289
ag289
ag289
ag289
ag289
ag289
ag289
ag1
(g5
S'\x84\x00\x00\x00\x00\x00\x00\x00'
p290
tp291
Rp292
ag292
ag292
ag292
ag292
ag292
ag292
ag292
ag292
ag292
ag292
ag292
ag292
ag292
ag292
ag292
ag292
ag292
ag292
ag292
ag292
ag292
ag292
ag292
ag292
ag292
ag292
ag292
ag292
ag292
ag292
ag292
ag292
ag292
ag292
ag292
ag292
ag292
ag292
ag292
ag292
ag292
ag292
ag292
ag292
ag292
ag292
ag292
ag292
ag292
ag292
ag292
ag292
ag292
ag292
ag292
ag292
ag292
ag292
ag292
ag1
(g5
S'\x85\x00\x00\x00\x00\x00\x00\x00'
p293
tp294
Rp295
ag295
ag295
ag295
ag295
ag295
ag295
ag295
ag295
ag295
ag295
ag295
ag295
ag295
ag295
ag295
ag295
ag295
ag295
ag295
ag295
ag295
ag295
ag295
ag295
ag295
ag295
ag295
ag295
ag295
ag295
ag295
ag295
ag295
ag295
ag295
ag295
ag295
ag295
ag295
ag295
ag295
ag295
ag295
ag295
ag295
ag295
ag295
ag295
ag295
ag295
ag295
ag295
ag295
ag295
ag295
ag295
ag295
ag295
ag295
ag1
(g5
S'\x86\x00\x00\x00\x00\x00\x00\x00'
p296
tp297
Rp298
ag298
ag298
ag298
ag298
ag298
ag298
ag298
ag298
ag298
ag298
ag298
ag298
ag298
ag298
ag298
ag298
ag298
ag298
ag298
ag298
ag298
ag298
ag298
ag298
ag298
ag298
ag298
ag298
ag298
ag298
ag298
ag298
ag298
ag298
ag298
ag298
ag298
ag298
ag298
ag298
ag298
ag298
ag298
ag298
ag298
ag298
ag298
ag298
ag298
ag298
ag298
ag298
ag298
ag298
ag298
ag298
ag298
ag298
ag298
ag1
(g5
S'\x88\x00\x00\x00\x00\x00\x00\x00'
p299
tp300
Rp301
ag301
ag301
ag301
ag301
ag301
ag301
ag301
ag301
ag301
ag301
ag301
ag301
ag301
ag301
ag301
ag301
ag301
ag301
ag301
ag301
ag301
ag301
ag301
ag301
ag301
ag301
ag301
ag301
ag301
ag301
ag301
ag301
ag301
ag301
ag301
ag301
ag301
ag301
ag301
ag301
ag301
ag301
ag301
ag301
ag301
ag301
ag301
ag301
ag301
ag301
ag301
ag301
ag301
ag301
ag301
ag301
ag301
ag301
ag301
ag1
(g5
S'\x89\x00\x00\x00\x00\x00\x00\x00'
p302
tp303
Rp304
ag304
ag304
ag304
ag304
ag304
ag304
ag304
ag304
ag304
ag304
ag304
ag304
ag304
ag304
ag304
ag304
ag304
ag304
ag304
ag304
ag304
ag304
ag304
ag304
ag304
ag304
ag304
ag304
ag304
ag304
ag304
ag304
ag304
ag304
ag304
ag304
ag304
ag304
ag304
ag304
ag304
ag304
ag304
ag304
ag304
ag304
ag304
ag304
ag304
ag304
ag304
ag304
ag304
ag304
ag304
ag304
ag304
ag304
ag304
ag1
(g5
S'\x8b\x00\x00\x00\x00\x00\x00\x00'
p305
tp306
Rp307
ag307
ag307
ag307
ag307
ag307
ag307
ag307
ag307
ag307
ag307
ag307
ag307
ag307
ag307
ag307
ag307
ag307
ag307
ag307
ag307
ag307
ag307
ag307
ag307
ag307
ag307
ag307
ag307
ag307
ag307
ag307
ag307
ag307
ag307
ag307
ag307
ag307
ag307
ag307
ag307
ag307
ag307
ag307
ag307
ag307
ag307
ag307
ag307
ag307
ag307
ag307
ag307
ag307
ag307
ag307
ag307
ag307
ag307
ag307
ag1
(g5
S'\x8c\x00\x00\x00\x00\x00\x00\x00'
p308
tp309
Rp310
ag310
ag310
ag310
ag310
ag310
ag310
ag310
ag310
ag310
ag310
ag310
ag310
ag310
ag310
ag310
ag310
ag310
ag310
ag310
ag310
ag310
ag310
ag310
ag310
ag310
ag310
ag310
ag310
ag310
ag310
ag310
ag310
ag310
ag310
ag310
ag310
ag310
ag310
ag310
ag310
ag310
ag310
ag310
ag310
ag310
ag310
ag310
ag310
ag310
ag310
ag310
ag310
ag310
ag310
ag310
ag310
ag310
ag310
ag310
ag1
(g5
S'\x8d\x00\x00\x00\x00\x00\x00\x00'
p311
tp312
Rp313
ag313
ag313
ag313
ag313
ag313
ag313
ag313
ag313
ag313
ag313
ag313
ag313
ag313
ag313
ag313
ag313
ag313
ag313
ag313
ag313
ag313
ag313
ag313
ag313
ag313
ag313
ag313
ag313
ag313
ag313
ag313
ag313
ag313
ag313
ag313
ag313
ag313
ag313
ag313
ag313
ag313
ag313
ag313
ag313
ag313
ag313
ag313
ag313
ag313
ag313
ag313
ag313
ag313
ag313
ag313
ag313
ag313
ag1
(g5
S'\x8e\x00\x00\x00\x00\x00\x00\x00'
p314
tp315
Rp316
ag316
ag316
ag316
ag316
ag316
ag316
ag316
ag316
ag316
ag316
ag316
ag316
ag316
ag316
ag316
ag316
ag316
ag316
ag316
ag316
ag316
ag316
ag316
ag316
ag316
ag316
ag316
ag316
ag316
ag316
ag316
ag316
ag316
ag316
ag316
ag316
ag316
ag316
ag316
ag316
ag316
ag316
ag316
ag316
ag316
ag316
ag316
ag316
ag316
ag316
ag316
ag316
ag316
ag316
ag316
ag316
ag316
ag316
ag316
ag1
(g5
S'\x8f\x00\x00\x00\x00\x00\x00\x00'
p317
tp318
Rp319
ag319
ag319
ag319
ag319
ag319
ag319
ag319
ag319
ag319
ag319
ag319
ag319
ag319
ag319
ag319
ag319
ag319
ag319
ag319
ag319
ag319
ag319
ag319
ag319
ag319
ag319
ag319
ag319
ag319
ag319
ag319
ag319
ag319
ag319
ag319
ag319
ag319
ag319
ag319
ag319
ag319
ag319
ag319
ag319
ag319
ag319
ag319
ag319
ag319
ag319
ag319
ag319
ag319
ag319
ag319
ag319
ag319
ag319
ag319
ag1
(g5
S'\x90\x00\x00\x00\x00\x00\x00\x00'
p320
tp321
Rp322
ag322
ag322
ag322
ag322
ag322
ag322
ag322
ag322
ag322
ag322
ag322
ag322
ag322
ag322
ag322
ag322
ag322
ag322
ag322
ag322
ag322
ag322
ag322
ag322
ag322
ag322
ag322
ag322
ag322
ag322
ag322
ag322
ag322
ag322
ag322
ag322
ag322
ag322
ag322
ag322
ag322
ag322
ag322
ag322
ag322
ag322
ag322
ag322
ag322
ag322
ag322
ag322
ag322
ag322
ag322
ag322
ag322
ag322
ag322
ag1
(g5
S'\x91\x00\x00\x00\x00\x00\x00\x00'
p323
tp324
Rp325
ag325
ag325
ag325
ag325
ag325
ag325
ag325
ag325
ag325
ag325
ag325
ag325
ag325
ag325
ag325
ag325
ag325
ag325
ag325
ag325
ag325
ag325
ag325
ag325
ag325
ag325
ag325
ag325
ag325
ag325
ag325
ag325
ag325
ag325
ag325
ag325
ag325
ag325
ag325
ag325
ag325
ag325
ag325
ag325
ag325
ag325
ag325
ag325
ag325
ag325
ag325
ag325
ag325
ag325
ag325
ag325
ag325
ag325
ag325
ag1
(g5
S'\x92\x00\x00\x00\x00\x00\x00\x00'
p326
tp327
Rp328
ag328
ag328
ag328
ag328
ag328
ag328
ag328
ag328
ag328
ag328
ag328
ag328
ag328
ag328
ag328
ag328
ag328
ag328
ag328
ag328
ag328
ag328
ag328
ag328
ag328
ag328
ag328
ag328
ag328
ag328
ag328
ag328
ag328
ag328
ag328
ag328
ag328
ag328
ag328
ag328
ag328
ag328
ag328
ag328
ag328
ag328
ag328
ag328
ag328
ag328
ag328
ag328
ag328
ag328
ag328
ag328
ag328
ag328
ag328
ag1
(g5
S'\x94\x00\x00\x00\x00\x00\x00\x00'
p329
tp330
Rp331
ag331
ag331
ag331
ag331
ag331
ag331
ag331
ag331
ag331
ag331
ag331
ag331
ag331
ag331
ag331
ag331
ag331
ag331
ag331
ag331
ag331
ag331
ag331
ag331
ag331
ag331
ag331
ag331
ag331
ag331
ag331
ag331
ag331
ag331
ag331
ag331
ag331
ag331
ag331
ag331
ag331
ag331
ag331
ag331
ag331
ag331
ag331
ag331
ag331
ag331
ag331
ag331
ag331
ag331
ag331
ag331
ag331
ag331
ag331
ag1
(g5
S'\x95\x00\x00\x00\x00\x00\x00\x00'
p332
tp333
Rp334
ag334
ag334
ag334
ag334
ag334
ag334
ag334
ag334
ag334
ag334
ag334
ag334
ag334
ag334
ag334
ag334
ag334
ag334
ag334
ag334
ag334
ag334
ag334
ag334
ag334
ag334
ag334
ag334
ag334
ag334
ag334
ag334
ag334
ag334
ag334
ag334
ag334
ag334
ag334
ag334
ag334
ag334
ag334
ag334
ag334
ag334
ag334
ag334
ag334
ag334
ag334
ag334
ag334
ag334
ag334
ag334
ag334
ag334
ag1
(g5
S'\x96\x00\x00\x00\x00\x00\x00\x00'
p335
tp336
Rp337
ag337
ag337
ag337
ag337
ag337
ag337
ag337
ag337
ag337
ag337
ag337
ag337
ag337
ag337
ag337
ag337
ag337
ag337
ag337
ag337
ag337
ag337
ag337
ag337
ag337
ag337
ag337
ag337
ag337
ag337
ag337
ag337
ag337
ag337
ag337
ag337
ag337
ag337
ag337
ag337
ag337
ag337
ag337
ag337
ag337
ag337
ag337
ag337
ag337
ag337
ag337
ag337
ag337
ag337
ag337
ag337
ag337
ag337
ag337
ag1
(g5
S'\x97\x00\x00\x00\x00\x00\x00\x00'
p338
tp339
Rp340
ag340
ag340
ag340
ag340
ag340
ag340
ag340
ag340
ag340
ag340
ag340
ag340
ag340
ag340
ag340
ag340
ag340
ag340
ag340
ag340
ag340
ag340
ag340
ag340
ag340
ag340
ag340
ag340
ag340
ag340
ag340
ag340
ag340
ag340
ag340
ag340
ag340
ag340
ag340
ag340
ag340
ag340
ag340
ag340
ag340
ag340
ag340
ag340
ag340
ag340
ag1
(g5
S'\x98\x00\x00\x00\x00\x00\x00\x00'
p341
tp342
Rp343
ag343
ag343
ag343
ag343
ag343
ag343
ag343
ag343
ag343
ag343
ag343
ag343
ag343
ag343
ag343
ag343
ag343
ag343
ag343
ag343
ag343
ag343
ag343
ag343
ag343
ag343
ag343
ag343
ag343
ag343
ag343
ag343
ag343
ag343
ag343
ag343
ag343
ag343
ag343
ag343
ag343
ag343
ag343
ag343
ag343
ag343
ag343
ag343
ag343
ag343
ag343
ag343
ag343
ag343
ag343
ag343
ag343
ag343
ag343
ag1
(g5
S'\x99\x00\x00\x00\x00\x00\x00\x00'
p344
tp345
Rp346
ag346
ag346
ag346
ag346
ag346
ag346
ag346
ag346
ag346
ag346
ag346
ag346
ag346
ag346
ag346
ag346
ag346
ag346
ag346
ag346
ag346
ag346
ag346
ag346
ag346
ag346
ag346
ag346
ag346
ag346
ag346
ag346
ag346
ag346
ag346
ag346
ag346
ag346
ag346
ag346
ag346
ag346
ag346
ag346
ag346
ag346
ag346
ag346
ag346
ag346
ag346
ag346
ag346
ag346
ag346
ag346
ag346
ag346
ag1
(g5
S'\x9a\x00\x00\x00\x00\x00\x00\x00'
p347
tp348
Rp349
ag349
ag349
ag349
ag349
ag349
ag349
ag349
ag349
ag349
ag349
ag349
ag349
ag349
ag349
ag349
ag349
ag349
ag349
ag349
ag349
ag349
ag349
ag349
ag349
ag349
ag349
ag349
ag349
ag349
ag349
ag349
ag349
ag349
ag349
ag349
ag349
ag349
ag349
ag349
ag349
ag349
ag349
ag349
ag349
ag349
ag349
ag349
ag349
ag349
ag349
ag349
ag349
ag349
ag349
ag349
ag349
ag349
ag349
ag349
ag1
(g5
S'\x9b\x00\x00\x00\x00\x00\x00\x00'
p350
tp351
Rp352
ag352
ag352
ag352
ag352
ag352
ag352
ag352
ag352
ag352
ag352
ag352
ag352
ag352
ag352
ag352
ag352
ag352
ag352
ag352
ag352
ag352
ag352
ag352
ag352
ag352
ag352
ag352
ag352
ag352
ag352
ag352
ag352
ag352
ag352
ag352
ag352
ag352
ag352
ag352
ag352
ag352
ag352
ag352
ag352
ag352
ag352
ag352
ag352
ag352
ag352
ag352
ag352
ag352
ag352
ag352
ag352
ag352
ag352
ag352
ag1
(g5
S'\x9d\x00\x00\x00\x00\x00\x00\x00'
p353
tp354
Rp355
ag355
ag355
ag355
ag355
ag355
ag355
ag355
ag355
ag355
ag355
ag355
ag355
ag355
ag355
ag355
ag355
ag355
ag355
ag355
ag355
ag355
ag355
ag355
ag355
ag355
ag355
ag355
ag355
ag355
ag355
ag355
ag355
ag355
ag355
ag355
ag355
ag355
ag355
ag355
ag355
ag355
ag355
ag355
ag355
ag355
ag355
ag355
ag355
ag355
ag355
ag355
ag355
ag355
ag355
ag355
ag355
ag355
ag355
ag1
(g5
S'\x9e\x00\x00\x00\x00\x00\x00\x00'
p356
tp357
Rp358
ag358
ag358
ag358
ag358
ag358
ag358
ag358
ag358
ag358
ag358
ag358
ag358
ag358
ag358
ag358
ag358
ag358
ag358
ag358
ag358
ag358
ag358
ag358
ag358
ag358
ag358
ag358
ag358
ag358
ag358
ag358
ag358
ag358
ag358
ag358
ag358
ag358
ag358
ag358
ag358
ag358
ag358
ag358
ag358
ag358
ag358
ag358
ag358
ag358
ag358
ag358
ag358
ag358
ag358
ag358
ag358
ag358
ag358
ag358
ag1
(g5
S'\x9f\x00\x00\x00\x00\x00\x00\x00'
p359
tp360
Rp361
ag361
ag361
ag361
ag361
ag361
ag361
ag361
ag361
ag361
ag361
ag361
ag361
ag361
ag361
ag361
ag361
ag361
ag361
ag361
ag361
ag361
ag361
ag361
ag361
ag361
ag361
ag361
ag361
ag361
ag361
ag361
ag361
ag361
ag361
ag361
ag361
ag361
ag361
ag361
ag361
ag361
ag361
ag361
ag361
ag361
ag361
ag361
ag361
ag361
ag361
ag361
ag361
ag361
ag361
ag361
ag361
ag361
ag361
ag361
ag1
(g5
S'\xa0\x00\x00\x00\x00\x00\x00\x00'
p362
tp363
Rp364
ag364
ag364
ag364
ag364
ag364
ag364
ag364
ag364
ag364
ag364
ag364
ag364
ag364
ag364
ag364
ag364
ag364
ag364
ag364
ag364
ag364
ag364
ag364
ag364
ag364
ag364
ag364
ag364
ag364
ag364
ag364
ag364
ag364
ag364
ag364
ag364
ag364
ag364
ag364
ag364
ag364
ag364
ag364
ag364
ag364
ag364
ag364
ag364
ag364
ag364
ag364
ag364
ag364
ag364
ag364
ag364
ag364
ag364
ag1
(g5
S'\xa1\x00\x00\x00\x00\x00\x00\x00'
p365
tp366
Rp367
ag367
ag367
ag367
ag367
ag367
ag367
ag367
ag367
ag367
ag367
ag367
ag367
ag367
ag367
ag367
ag367
ag367
ag367
ag367
ag367
ag367
ag367
ag367
ag367
ag367
ag367
ag367
ag367
ag367
ag367
ag367
ag367
ag367
ag367
ag367
ag367
ag367
ag367
ag367
ag367
ag367
ag367
ag367
ag367
ag367
ag367
ag367
ag367
ag367
ag367
ag367
ag367
ag367
ag367
ag367
ag367
ag367
ag367
ag367
ag1
(g5
S'\xa2\x00\x00\x00\x00\x00\x00\x00'
p368
tp369
Rp370
ag370
ag370
ag370
ag370
ag370
ag370
ag370
ag370
ag370
ag370
ag370
ag370
ag370
ag370
ag370
ag370
ag370
ag370
ag370
ag370
ag370
ag370
ag370
ag370
ag370
ag370
ag370
ag370
ag370
ag370
ag370
ag370
ag370
ag370
ag370
ag370
ag370
ag370
ag370
ag370
ag370
ag370
ag370
ag370
ag370
ag370
ag370
ag370
ag370
ag370
ag370
ag370
ag370
ag370
ag370
ag370
ag370
ag370
ag370
ag1
(g5
S'\xa4\x00\x00\x00\x00\x00\x00\x00'
p371
tp372
Rp373
ag373
ag373
ag373
ag373
ag373
ag373
ag373
ag373
ag373
ag373
ag373
ag373
ag373
ag373
ag373
ag373
ag373
ag373
ag373
ag373
ag373
ag373
ag373
ag373
ag373
ag373
ag373
ag373
ag373
ag373
ag373
ag373
ag373
ag373
ag373
ag373
ag373
ag373
ag373
ag373
ag373
ag373
ag373
ag373
ag373
ag373
ag373
ag373
ag373
ag373
ag373
ag373
ag373
ag373
ag373
ag373
ag373
ag373
ag373
ag1
(g5
S'\xa7\x00\x00\x00\x00\x00\x00\x00'
p374
tp375
Rp376
ag376
ag376
ag376
ag376
ag376
ag376
ag376
ag376
ag376
ag376
ag376
ag376
ag376
ag376
ag376
ag376
ag376
ag376
ag376
ag376
ag376
ag376
ag376
ag376
ag376
ag376
ag376
ag376
ag376
ag376
ag376
ag376
ag376
ag376
ag376
ag376
ag376
ag376
ag376
ag376
ag376
ag376
ag376
ag376
ag376
ag376
ag376
ag376
ag376
ag376
ag376
ag376
ag376
ag376
ag376
ag376
ag376
ag376
ag376
ag1
(g5
S'\xa8\x00\x00\x00\x00\x00\x00\x00'
p377
tp378
Rp379
ag379
ag379
ag379
ag379
ag379
ag379
ag379
ag379
ag379
ag379
ag379
ag379
ag379
ag379
ag379
ag379
ag379
ag379
ag379
ag379
ag379
ag379
ag379
ag379
ag379
ag379
ag379
ag379
ag379
ag379
ag379
ag379
ag379
ag379
ag379
ag379
ag379
ag379
ag379
ag379
ag379
ag379
ag379
ag379
ag379
ag379
ag379
ag379
ag379
ag379
ag379
ag379
ag379
ag379
ag379
ag379
ag379
ag379
ag1
(g5
S'\xa9\x00\x00\x00\x00\x00\x00\x00'
p380
tp381
Rp382
ag382
ag382
ag382
ag382
ag382
ag382
ag382
ag382
ag382
ag382
ag382
ag382
ag382
ag382
ag382
ag382
ag382
ag382
ag382
ag382
ag382
ag382
ag382
ag382
ag382
ag382
ag382
ag382
ag382
ag382
ag382
ag382
ag382
ag382
ag382
ag382
ag382
ag382
ag382
ag382
ag382
ag382
ag382
ag382
ag382
ag382
ag382
ag382
ag382
ag382
ag382
ag382
ag382
ag382
ag382
ag382
ag382
ag382
ag1
(g5
S'\xaa\x00\x00\x00\x00\x00\x00\x00'
p383
tp384
Rp385
ag385
ag385
ag385
ag385
ag385
ag385
ag385
ag385
ag385
ag385
ag385
ag385
ag385
ag385
ag385
ag385
ag385
ag385
ag385
ag385
ag385
ag385
ag385
ag385
ag385
ag385
ag385
ag385
ag385
ag385
ag385
ag385
ag385
ag385
ag385
ag385
ag385
ag385
ag385
ag385
ag385
ag385
ag385
ag385
ag385
ag385
ag385
ag385
ag385
ag385
ag385
ag385
ag385
ag385
ag385
ag385
ag385
ag385
ag385
ag1
(g5
S'\xab\x00\x00\x00\x00\x00\x00\x00'
p386
tp387
Rp388
ag388
ag388
ag388
ag388
ag388
ag388
ag388
ag388
ag388
ag388
ag388
ag388
ag388
ag388
ag388
ag388
ag388
ag388
ag388
ag388
ag388
ag388
ag388
ag388
ag388
ag388
ag388
ag388
ag388
ag388
ag388
ag388
ag388
ag388
ag388
ag388
ag388
ag388
ag388
ag388
ag388
ag388
ag388
ag388
ag388
ag388
ag388
ag388
ag388
ag388
ag388
ag388
ag388
ag388
ag388
ag388
ag388
ag388
ag388
ag1
(g5
S'\xac\x00\x00\x00\x00\x00\x00\x00'
p389
tp390
Rp391
ag391
ag391
ag391
ag391
ag391
ag391
ag391
ag391
ag391
ag391
ag391
ag391
ag391
ag391
ag391
ag391
ag391
ag391
ag391
ag391
ag391
ag391
ag391
ag391
ag391
ag391
ag391
ag391
ag391
ag391
ag391
ag391
ag391
ag391
ag391
ag391
ag391
ag391
ag391
ag391
ag391
ag391
ag391
ag391
ag391
ag391
ag391
ag391
ag391
ag391
ag391
ag391
ag391
ag391
ag391
ag391
ag391
ag391
ag391
ag1
(g5
S'\xad\x00\x00\x00\x00\x00\x00\x00'
p392
tp393
Rp394
ag394
ag394
ag394
ag394
ag394
ag394
ag394
ag394
ag394
ag394
ag394
ag394
ag394
ag394
ag394
ag394
ag394
ag394
ag394
ag394
ag394
ag394
ag394
ag394
ag394
ag394
ag394
ag394
ag394
ag394
ag394
ag394
ag394
ag394
ag394
ag394
ag394
ag394
ag394
ag394
ag394
ag394
ag394
ag394
ag394
ag394
ag394
ag394
ag394
ag394
ag394
ag394
ag394
ag394
ag394
ag394
ag394
ag394
ag394
ag1
(g5
S'\xae\x00\x00\x00\x00\x00\x00\x00'
p395
tp396
Rp397
ag397
ag397
ag397
ag397
ag397
ag397
ag397
ag397
ag397
ag397
ag397
ag397
ag397
ag397
ag397
ag397
ag397
ag397
ag397
ag397
ag397
ag397
ag397
ag397
ag397
ag397
ag397
ag397
ag397
ag397
ag397
ag397
ag397
ag397
ag397
ag397
ag397
ag397
ag397
ag397
ag397
ag397
ag397
ag397
ag397
ag397
ag397
ag397
ag397
ag397
ag397
ag397
ag397
ag397
ag397
ag397
ag397
ag397
ag397
ag1
(g5
S'\xaf\x00\x00\x00\x00\x00\x00\x00'
p398
tp399
Rp400
ag400
ag400
ag400
ag400
ag400
ag400
ag400
ag400
ag400
ag400
ag400
ag400
ag400
ag400
ag400
ag400
ag400
ag400
ag400
ag400
ag400
ag400
ag400
ag400
ag400
ag400
ag400
ag400
ag400
ag400
ag400
ag400
ag400
ag400
ag400
ag400
ag400
ag400
ag400
ag400
ag400
ag400
ag400
ag400
ag400
ag400
ag400
ag400
ag400
ag400
ag400
ag400
ag400
ag400
ag400
ag400
ag400
ag400
ag400
ag1
(g5
S'\xb0\x00\x00\x00\x00\x00\x00\x00'
p401
tp402
Rp403
ag403
ag403
ag403
ag403
ag403
ag403
ag403
ag403
ag403
ag403
ag403
ag403
ag403
ag403
ag403
ag403
ag403
ag403
ag403
ag403
ag403
ag403
ag403
ag403
ag403
ag403
ag403
ag403
ag403
ag403
ag403
ag403
ag403
ag403
ag403
ag403
ag403
ag403
ag403
ag403
ag403
ag403
ag403
ag403
ag403
ag403
ag403
ag403
ag403
ag403
ag403
ag403
ag403
ag403
ag403
ag403
ag403
ag403
ag403
ag1
(g5
S'\xb1\x00\x00\x00\x00\x00\x00\x00'
p404
tp405
Rp406
ag406
ag406
ag406
ag406
ag406
ag406
ag406
ag406
ag406
ag406
ag406
ag406
ag406
ag406
ag406
ag406
ag406
ag406
ag406
ag406
ag406
ag406
ag406
ag406
ag406
ag406
ag406
ag406
ag406
ag406
ag406
ag406
ag406
ag406
ag406
ag406
ag406
ag406
ag406
ag406
ag406
ag406
ag406
ag406
ag406
ag406
ag406
ag406
ag406
ag406
ag406
ag406
ag406
ag406
ag406
ag406
ag406
ag406
ag406
ag1
(g5
S'\xb2\x00\x00\x00\x00\x00\x00\x00'
p407
tp408
Rp409
ag409
ag409
ag409
ag409
ag409
ag409
ag409
ag409
ag409
ag409
ag409
ag409
ag409
ag409
ag409
ag409
ag409
ag409
ag409
ag409
ag409
ag409
ag409
ag409
ag409
ag409
ag409
ag409
ag409
ag409
ag409
ag409
ag409
ag409
ag409
ag409
ag409
ag409
ag409
ag409
ag409
ag409
ag409
ag409
ag409
ag409
ag409
ag409
ag409
ag409
ag409
ag409
ag409
ag409
ag409
ag1
(g5
S'\xb3\x00\x00\x00\x00\x00\x00\x00'
p410
tp411
Rp412
ag412
ag412
ag412
ag412
ag412
ag412
ag412
ag412
ag412
ag412
ag412
ag412
ag412
ag412
ag412
ag412
ag412
ag412
ag412
ag412
ag412
ag412
ag412
ag412
ag412
ag412
ag412
ag412
ag412
ag412
ag412
ag412
ag412
ag412
ag412
ag412
ag412
ag412
ag412
ag412
ag412
ag412
ag412
ag412
ag412
ag412
ag412
ag412
ag412
ag412
ag412
ag412
ag412
ag412
ag412
ag412
ag412
ag412
ag1
(g5
S'\xb5\x00\x00\x00\x00\x00\x00\x00'
p413
tp414
Rp415
ag415
ag415
ag415
ag415
ag415
ag415
ag415
ag415
ag415
ag415
ag415
ag415
ag415
ag415
ag415
ag415
ag415
ag415
ag415
ag415
ag415
ag415
ag415
ag415
ag415
ag415
ag415
ag415
ag415
ag415
ag415
ag415
ag415
ag415
ag415
ag415
ag415
ag415
ag415
ag415
ag415
ag415
ag415
ag415
ag415
ag415
ag415
ag415
ag415
ag415
ag415
ag415
ag415
ag415
ag415
ag415
ag415
ag415
ag1
(g5
S'\xb6\x00\x00\x00\x00\x00\x00\x00'
p416
tp417
Rp418
ag418
ag418
ag418
ag418
ag418
ag418
ag418
ag418
ag418
ag418
ag418
ag418
ag418
ag418
ag418
ag418
ag418
ag418
ag418
ag418
ag418
ag418
ag418
ag418
ag418
ag418
ag418
ag418
ag418
ag418
ag418
ag418
ag418
ag418
ag418
ag418
ag418
ag418
ag418
ag418
ag418
ag418
ag418
ag418
ag418
ag418
ag418
ag418
ag418
ag418
ag418
ag418
ag418
ag418
ag418
ag418
ag418
ag418
ag418
ag1
(g5
S'\xb8\x00\x00\x00\x00\x00\x00\x00'
p419
tp420
Rp421
ag421
ag421
ag421
ag421
ag421
ag421
ag421
ag421
ag421
ag421
ag421
ag421
ag421
ag421
ag421
ag421
ag421
ag421
ag421
ag421
ag421
ag421
ag421
ag421
ag421
ag421
ag421
ag421
ag421
ag421
ag421
ag421
ag421
ag421
ag421
ag421
ag421
ag421
ag421
ag421
ag421
ag421
ag421
ag421
ag421
ag421
ag421
ag421
ag421
ag421
ag421
ag421
ag421
ag421
ag421
ag421
ag421
ag421
ag421
ag1
(g5
S'\xbc\x00\x00\x00\x00\x00\x00\x00'
p422
tp423
Rp424
ag424
ag424
ag424
ag424
ag424
ag424
ag424
ag424
ag424
ag424
ag424
ag424
ag424
ag424
ag424
ag424
ag424
ag424
ag424
ag424
ag424
ag424
ag424
ag424
ag424
ag424
ag424
ag424
ag424
ag424
ag424
ag424
ag424
ag424
ag424
ag424
ag424
ag424
ag424
ag424
ag424
ag424
ag424
ag424
ag424
ag424
ag424
ag424
ag424
ag424
ag424
ag424
ag424
ag424
ag424
ag424
ag424
ag424
ag424
ag1
(g5
S'\xbd\x00\x00\x00\x00\x00\x00\x00'
p425
tp426
Rp427
ag427
ag427
ag427
ag427
ag427
ag427
ag427
ag427
ag427
ag427
ag427
ag427
ag427
ag427
ag427
ag427
ag427
ag427
ag427
ag427
ag427
ag427
ag427
ag427
ag427
ag427
ag427
ag427
ag427
ag427
ag427
ag427
ag427
ag427
ag427
ag427
ag427
ag427
ag427
ag427
ag427
ag427
ag427
ag427
ag427
ag427
ag427
ag427
ag427
ag427
ag427
ag427
ag427
ag427
ag427
ag427
ag427
ag427
ag427
ag1
(g5
S'\xbe\x00\x00\x00\x00\x00\x00\x00'
p428
tp429
Rp430
ag430
ag430
ag430
ag430
ag430
ag430
ag430
ag430
ag430
ag430
ag430
ag430
ag430
ag430
ag430
ag430
ag430
ag430
ag430
ag430
ag430
ag430
ag430
ag430
ag430
ag430
ag430
ag430
ag430
ag430
ag430
ag430
ag430
ag430
ag430
ag430
ag430
ag430
ag430
ag430
ag430
ag430
ag430
ag430
ag430
ag430
ag430
ag430
ag430
ag430
ag430
ag430
ag430
ag430
ag430
ag430
ag430
ag1
(g5
S'\xbf\x00\x00\x00\x00\x00\x00\x00'
p431
tp432
Rp433
ag433
ag433
ag433
ag433
ag433
ag433
ag433
ag433
ag433
ag433
ag433
ag433
ag433
ag433
ag433
ag433
ag433
ag433
ag433
ag433
ag433
ag433
ag433
ag433
ag433
ag433
ag433
ag433
ag433
ag433
ag433
ag433
ag433
ag433
ag433
ag433
ag433
ag433
ag433
ag433
ag433
ag433
ag433
ag433
ag433
ag433
ag433
ag433
ag433
ag433
ag433
ag433
ag433
ag433
ag433
ag433
ag433
ag433
ag433
ag1
(g5
S'\xc0\x00\x00\x00\x00\x00\x00\x00'
p434
tp435
Rp436
ag436
ag436
ag436
ag436
ag436
ag436
ag436
ag436
ag436
ag436
ag436
ag436
ag436
ag436
ag436
ag436
ag436
ag436
ag436
ag436
ag436
ag436
ag436
ag436
ag436
ag436
ag436
ag436
ag436
ag436
ag436
ag436
ag436
ag436
ag436
ag436
ag436
ag436
ag436
ag436
ag436
ag436
ag436
ag436
ag436
ag436
ag436
ag436
ag436
ag436
ag436
ag436
ag436
ag436
ag436
ag436
ag436
ag436
ag436
ag1
(g5
S'\xc1\x00\x00\x00\x00\x00\x00\x00'
p437
tp438
Rp439
ag439
ag439
ag439
ag439
ag439
ag439
ag439
ag439
ag439
ag439
ag439
ag439
ag439
ag439
ag439
ag439
ag439
ag439
ag439
ag439
ag439
ag439
ag439
ag439
ag439
ag439
ag439
ag439
ag439
ag439
ag439
ag439
ag439
ag439
ag439
ag439
ag439
ag439
ag439
ag439
ag439
ag439
ag439
ag439
ag439
ag439
ag439
ag439
ag439
ag439
ag439
ag439
ag439
ag439
ag439
ag439
ag439
ag439
ag439
ag1
(g5
S'\xc2\x00\x00\x00\x00\x00\x00\x00'
p440
tp441
Rp442
ag442
ag442
ag442
ag442
ag442
ag442
ag442
ag442
ag442
ag442
ag442
ag442
ag442
ag442
ag442
ag442
ag442
ag442
ag442
ag442
ag442
ag442
ag442
ag442
ag442
ag442
ag442
ag442
ag442
ag442
ag442
ag442
ag442
ag442
ag442
ag442
ag442
ag442
ag442
ag442
ag442
ag442
ag442
ag442
ag442
ag442
ag442
ag442
ag442
ag442
ag442
ag442
ag442
ag442
ag442
ag442
ag442
ag442
ag442
ag1
(g5
S'\xc3\x00\x00\x00\x00\x00\x00\x00'
p443
tp444
Rp445
ag445
ag445
ag445
ag445
ag445
ag445
ag445
ag445
ag445
ag445
ag445
ag445
ag445
ag445
ag445
ag445
ag445
ag445
ag445
ag445
ag445
ag445
ag445
ag445
ag445
ag445
ag445
ag445
ag445
ag445
ag445
ag445
ag445
ag445
ag445
ag445
ag445
ag445
ag445
ag445
ag445
ag445
ag445
ag445
ag445
ag445
ag445
ag445
ag445
ag445
ag445
ag445
ag445
ag445
ag445
ag445
ag445
ag445
ag445
ag1
(g5
S'\xc4\x00\x00\x00\x00\x00\x00\x00'
p446
tp447
Rp448
ag448
ag448
ag448
ag448
ag448
ag448
ag448
ag448
ag448
ag448
ag448
ag448
ag448
ag448
ag448
ag448
ag448
ag448
ag448
ag448
ag448
ag448
ag448
ag448
ag448
ag448
ag448
ag448
ag448
ag448
ag448
ag448
ag448
ag448
ag448
ag448
ag448
ag448
ag448
ag448
ag448
ag448
ag448
ag448
ag448
ag448
ag448
ag448
ag448
ag448
ag448
ag448
ag448
ag448
ag448
ag448
ag448
ag448
ag1
(g5
S'\xc6\x00\x00\x00\x00\x00\x00\x00'
p449
tp450
Rp451
ag451
ag451
ag451
ag451
ag451
ag451
ag451
ag451
ag451
ag451
ag451
ag451
ag451
ag451
ag451
ag451
ag451
ag451
ag451
ag451
ag451
ag451
ag451
ag451
ag451
ag451
ag451
ag451
ag451
ag451
ag451
ag451
ag451
ag451
ag451
ag451
ag451
ag451
ag451
ag451
ag451
ag451
ag451
ag451
ag451
ag451
ag451
ag451
ag451
ag451
ag451
ag451
ag451
ag451
ag451
ag451
ag451
ag451
ag451
ag1
(g5
S'\xc7\x00\x00\x00\x00\x00\x00\x00'
p452
tp453
Rp454
ag454
ag454
ag454
ag454
ag454
ag454
ag454
ag454
ag454
ag454
ag454
ag454
ag454
ag454
ag454
ag454
ag454
ag454
ag454
ag454
ag454
ag454
ag454
ag454
ag454
ag454
ag454
ag454
ag454
ag454
ag454
ag454
ag454
ag454
ag454
ag454
ag454
ag454
ag454
ag454
ag454
ag454
ag454
ag454
ag454
ag454
ag454
ag454
ag454
ag454
ag454
ag454
ag454
ag454
ag454
ag454
ag454
ag454
ag454
ag1
(g5
S'\xc8\x00\x00\x00\x00\x00\x00\x00'
p455
tp456
Rp457
ag457
ag457
ag457
ag457
ag457
ag457
ag457
ag457
ag457
ag457
ag457
ag457
ag457
ag457
ag457
ag457
ag457
ag457
ag457
ag457
ag457
ag457
ag457
ag457
ag457
ag457
ag457
ag457
ag457
ag457
ag457
ag457
ag457
ag457
ag457
ag457
ag457
ag457
ag457
ag457
ag457
ag457
ag457
ag457
ag457
ag457
ag457
ag457
ag457
ag457
ag457
ag457
ag457
ag457
ag457
ag457
ag457
ag457
ag457
a.